target datalayout = "e-m:e-p270:32:32-p271:32:32-p272:64:64-i64:64-i128:128-f80:128-n8:16:32:64-S128"
target triple = "x86_64-pc-linux-gnu"

%struct._object = type { %union.anon, ptr }
%union.anon = type { i64 }
%struct.PyDictObject = type { %struct._object, i64, i64, ptr, ptr }
%struct._dictkeysobject = type { i64, i8, i8, i8, i32, i64, i64, [0 x i8] }
%struct._dictvalues = type { i8, i8, i8, i8, [1 x ptr] }
%struct.PyDictKeyEntry = type { i64, ptr, ptr }
%struct.PyDictUnicodeEntry = type { ptr, ptr }
%struct.anon = type { i32, i32 }
%struct.dictiterobject = type { %struct._object, ptr, i64, i64, ptr, i64 }

@PyExc_RuntimeError = external global ptr, align 8
@.str.70 = private unnamed_addr constant [41 x i8] c"dictionary changed size during iteration\00", align 1
@.str.71 = private unnamed_addr constant [41 x i8] c"dictionary keys changed during iteration\00", align 1

; Function Attrs: alwaysinline nounwind uwtable
define internal i32 @_Py_IsImmortal(ptr noundef %0) #6 {
  %2 = alloca ptr, align 8
  store ptr %0, ptr %2, align 8, !tbaa !27
  %3 = load ptr, ptr %2, align 8, !tbaa !27
  %4 = getelementptr inbounds nuw %struct._object, ptr %3, i32 0, i32 0
  %5 = getelementptr inbounds nuw %struct.anon, ptr %4, i32 0, i32 0
  %6 = load i32, ptr %5, align 8, !tbaa !38
  %7 = icmp slt i32 %6, 0
  %8 = zext i1 %7 to i32
  ret i32 %8
}

; Function Attrs: alwaysinline nounwind uwtable
define internal void @Py_INCREF(ptr noundef %0) #6 {
  %2 = alloca ptr, align 8
  %3 = alloca i32, align 4
  %4 = alloca i32, align 4
  store ptr %0, ptr %2, align 8, !tbaa !27
  call void @llvm.lifetime.start.p0(i64 4, ptr %3) #10
  %5 = load ptr, ptr %2, align 8, !tbaa !27
  %6 = getelementptr inbounds nuw %struct._object, ptr %5, i32 0, i32 0
  %7 = getelementptr inbounds nuw %struct.anon, ptr %6, i32 0, i32 0
  %8 = load i32, ptr %7, align 8, !tbaa !38
  store i32 %8, ptr %3, align 4, !tbaa !28
  %9 = load i32, ptr %3, align 4, !tbaa !28
  %10 = icmp slt i32 %9, 0
  br i1 %10, label %11, label %12

11:                                               ; preds = %1
  store i32 1, ptr %4, align 4
  br label %18

12:                                               ; preds = %1
  %13 = load i32, ptr %3, align 4, !tbaa !28
  %14 = add i32 %13, 1
  %15 = load ptr, ptr %2, align 8, !tbaa !27
  %16 = getelementptr inbounds nuw %struct._object, ptr %15, i32 0, i32 0
  %17 = getelementptr inbounds nuw %struct.anon, ptr %16, i32 0, i32 0
  store i32 %14, ptr %17, align 8, !tbaa !38
  store i32 0, ptr %4, align 4
  br label %18

18:                                               ; preds = %12, %11
  call void @llvm.lifetime.end.p0(i64 4, ptr %3) #10
  %19 = load i32, ptr %4, align 4
  switch i32 %19, label %21 [
    i32 0, label %20
    i32 1, label %20
  ]

20:                                               ; preds = %18, %18
  ret void

21:                                               ; preds = %18
  unreachable
}

; Function Attrs: inlinehint nounwind uwtable
define internal ptr @_DK_ENTRIES(ptr noundef %0) #2 {
  %2 = alloca ptr, align 8
  %3 = alloca ptr, align 8
  %4 = alloca i64, align 8
  store ptr %0, ptr %2, align 8, !tbaa !36
  call void @llvm.lifetime.start.p0(i64 8, ptr %3) #10
  %5 = load ptr, ptr %2, align 8, !tbaa !36
  %6 = getelementptr inbounds nuw %struct._dictkeysobject, ptr %5, i32 0, i32 7
  %7 = getelementptr inbounds [0 x i8], ptr %6, i64 0, i64 0
  store ptr %7, ptr %3, align 8, !tbaa !70
  call void @llvm.lifetime.start.p0(i64 8, ptr %4) #10
  %8 = load ptr, ptr %2, align 8, !tbaa !36
  %9 = getelementptr inbounds nuw %struct._dictkeysobject, ptr %8, i32 0, i32 2
  %10 = load i8, ptr %9, align 1, !tbaa !38
  %11 = zext i8 %10 to i32
  %12 = zext i32 %11 to i64
  %13 = shl i64 1, %12
  store i64 %13, ptr %4, align 8, !tbaa !39
  %14 = load ptr, ptr %3, align 8, !tbaa !70
  %15 = load i64, ptr %4, align 8, !tbaa !39
  %16 = getelementptr i8, ptr %14, i64 %15
  call void @llvm.lifetime.end.p0(i64 8, ptr %4) #10
  call void @llvm.lifetime.end.p0(i64 8, ptr %3) #10
  ret ptr %16
}

; Function Attrs: inlinehint nounwind uwtable
define internal ptr @get_insertion_order_array(ptr noundef %0) #2 {
  %2 = alloca ptr, align 8
  store ptr %0, ptr %2, align 8, !tbaa !72
  %3 = load ptr, ptr %2, align 8, !tbaa !72
  %4 = getelementptr inbounds nuw %struct._dictvalues, ptr %3, i32 0, i32 4
  %5 = load ptr, ptr %2, align 8, !tbaa !72
  %6 = getelementptr inbounds nuw %struct._dictvalues, ptr %5, i32 0, i32 0
  %7 = load i8, ptr %6, align 8, !tbaa !111
  %8 = zext i8 %7 to i64
  %9 = getelementptr [1 x ptr], ptr %4, i64 0, i64 %8
  ret ptr %9
}

; Function Attrs: alwaysinline nounwind uwtable
define internal void @Py_DECREF(ptr noundef %0) #6 {
  %2 = alloca ptr, align 8
  store ptr %0, ptr %2, align 8, !tbaa !27
  %3 = load ptr, ptr %2, align 8, !tbaa !27
  %4 = call i32 @_Py_IsImmortal(ptr noundef %3)
  %5 = icmp ne i32 %4, 0
  br i1 %5, label %6, label %7

6:                                                ; preds = %1
  br label %16

7:                                                ; preds = %1
  %8 = load ptr, ptr %2, align 8, !tbaa !27
  %9 = getelementptr inbounds nuw %struct._object, ptr %8, i32 0, i32 0
  %10 = getelementptr inbounds nuw %struct.anon, ptr %9, i32 0, i32 0
  %11 = load i32, ptr %10, align 8, !tbaa !38
  %12 = add i32 %11, -1
  store i32 %12, ptr %10, align 8, !tbaa !38
  %13 = icmp eq i32 %12, 0
  br i1 %13, label %14, label %16

14:                                               ; preds = %7
  %15 = load ptr, ptr %2, align 8, !tbaa !27
  call void @_Py_Dealloc(ptr noundef %15)
  br label %16

16:                                               ; preds = %6, %14, %7
  ret void
}

; Function Attrs: inlinehint nounwind uwtable
define internal ptr @_Py_NewRef(ptr noundef %0) #2 {
  %2 = alloca ptr, align 8
  store ptr %0, ptr %2, align 8, !tbaa !27
  %3 = load ptr, ptr %2, align 8, !tbaa !27
  call void @Py_INCREF(ptr noundef %3)
  %4 = load ptr, ptr %2, align 8, !tbaa !27
  ret ptr %4
}

; Function Attrs: inlinehint nounwind uwtable
define internal ptr @DK_ENTRIES(ptr noundef %0) #2 {
  %2 = alloca ptr, align 8
  store ptr %0, ptr %2, align 8, !tbaa !36
  %3 = load ptr, ptr %2, align 8, !tbaa !36
  %4 = call ptr @_DK_ENTRIES(ptr noundef %3)
  ret ptr %4
}

; Function Attrs: inlinehint nounwind uwtable
define internal ptr @DK_UNICODE_ENTRIES(ptr noundef %0) #2 {
  %2 = alloca ptr, align 8
  store ptr %0, ptr %2, align 8, !tbaa !36
  %3 = load ptr, ptr %2, align 8, !tbaa !36
  %4 = call ptr @_DK_ENTRIES(ptr noundef %3)
  ret ptr %4
}

; Function Attrs: inlinehint nounwind uwtable
define internal i32 @get_index_from_order(ptr noundef %0, i64 noundef %1) #2 {
  %3 = alloca ptr, align 8
  %4 = alloca i64, align 8
  %5 = alloca ptr, align 8
  store ptr %0, ptr %3, align 8, !tbaa !29
  store i64 %1, ptr %4, align 8, !tbaa !39
  call void @llvm.lifetime.start.p0(i64 8, ptr %5) #10
  %6 = load ptr, ptr %3, align 8, !tbaa !29
  %7 = getelementptr inbounds nuw %struct.PyDictObject, ptr %6, i32 0, i32 4
  %8 = load ptr, ptr %7, align 8, !tbaa !37
  %9 = call ptr @get_insertion_order_array(ptr noundef %8)
  store ptr %9, ptr %5, align 8, !tbaa !70
  %10 = load ptr, ptr %5, align 8, !tbaa !70
  %11 = load i64, ptr %4, align 8, !tbaa !39
  %12 = getelementptr i8, ptr %10, i64 %11
  %13 = load i8, ptr %12, align 1, !tbaa !38
  %14 = zext i8 %13 to i32
  call void @llvm.lifetime.end.p0(i64 8, ptr %5) #10
  ret i32 %14
}

; Function Attrs: nounwind uwtable
define internal ptr @dictiter_iternextvalue_lock_held(ptr noundef %0, ptr noundef %1) #0 {
  %3 = alloca ptr, align 8
  %4 = alloca ptr, align 8
  %5 = alloca ptr, align 8
  %6 = alloca ptr, align 8
  %7 = alloca ptr, align 8
  %8 = alloca i64, align 8
  %9 = alloca i32, align 4
  %10 = alloca i32, align 4
  %11 = alloca i64, align 8
  %12 = alloca ptr, align 8
  %13 = alloca ptr, align 8
  store ptr %0, ptr %4, align 8, !tbaa !29
  store ptr %1, ptr %5, align 8, !tbaa !27
  call void @llvm.lifetime.start.p0(i64 8, ptr %6) #10
  %14 = load ptr, ptr %5, align 8, !tbaa !27
  store ptr %14, ptr %6, align 8, !tbaa !29
  call void @llvm.lifetime.start.p0(i64 8, ptr %7) #10
  call void @llvm.lifetime.start.p0(i64 8, ptr %8) #10
  %15 = load ptr, ptr %6, align 8, !tbaa !29
  %16 = getelementptr inbounds nuw %struct.dictiterobject, ptr %15, i32 0, i32 2
  %17 = load i64, ptr %16, align 8, !tbaa !256
  %18 = load ptr, ptr %4, align 8, !tbaa !29
  %19 = getelementptr inbounds nuw %struct.PyDictObject, ptr %18, i32 0, i32 1
  %20 = load i64, ptr %19, align 8, !tbaa !40
  %21 = icmp ne i64 %17, %20
  br i1 %21, label %22, label %26

22:                                               ; preds = %2
  %23 = load ptr, ptr @PyExc_RuntimeError, align 8, !tbaa !27
  call void @PyErr_SetString(ptr noundef %23, ptr noundef @.str.70)
  %24 = load ptr, ptr %6, align 8, !tbaa !29
  %25 = getelementptr inbounds nuw %struct.dictiterobject, ptr %24, i32 0, i32 2
  store i64 -1, ptr %25, align 8, !tbaa !256
  store ptr null, ptr %3, align 8
  store i32 1, ptr %9, align 4
  br label %162

26:                                               ; preds = %2
  %27 = load ptr, ptr %6, align 8, !tbaa !29
  %28 = getelementptr inbounds nuw %struct.dictiterobject, ptr %27, i32 0, i32 3
  %29 = load i64, ptr %28, align 8, !tbaa !258
  store i64 %29, ptr %8, align 8, !tbaa !39
  %30 = load ptr, ptr %4, align 8, !tbaa !29
  %31 = getelementptr inbounds nuw %struct.PyDictObject, ptr %30, i32 0, i32 4
  %32 = load ptr, ptr %31, align 8, !tbaa !37
  %33 = icmp ne ptr %32, null
  br i1 %33, label %34, label %53

34:                                               ; preds = %26
  %35 = load i64, ptr %8, align 8, !tbaa !39
  %36 = load ptr, ptr %4, align 8, !tbaa !29
  %37 = getelementptr inbounds nuw %struct.PyDictObject, ptr %36, i32 0, i32 1
  %38 = load i64, ptr %37, align 8, !tbaa !40
  %39 = icmp sge i64 %35, %38
  br i1 %39, label %40, label %41

40:                                               ; preds = %34
  br label %158

41:                                               ; preds = %34
  call void @llvm.lifetime.start.p0(i64 4, ptr %10) #10
  %42 = load ptr, ptr %4, align 8, !tbaa !29
  %43 = load i64, ptr %8, align 8, !tbaa !39
  %44 = call i32 @get_index_from_order(ptr noundef %42, i64 noundef %43)
  store i32 %44, ptr %10, align 4, !tbaa !28
  %45 = load ptr, ptr %4, align 8, !tbaa !29
  %46 = getelementptr inbounds nuw %struct.PyDictObject, ptr %45, i32 0, i32 4
  %47 = load ptr, ptr %46, align 8, !tbaa !37
  %48 = getelementptr inbounds nuw %struct._dictvalues, ptr %47, i32 0, i32 4
  %49 = load i32, ptr %10, align 4, !tbaa !28
  %50 = sext i32 %49 to i64
  %51 = getelementptr [1 x ptr], ptr %48, i64 0, i64 %50
  %52 = load ptr, ptr %51, align 8, !tbaa !27
  store ptr %52, ptr %7, align 8, !tbaa !27
  call void @llvm.lifetime.end.p0(i64 4, ptr %10) #10
  br label %140

53:                                               ; preds = %26
  call void @llvm.lifetime.start.p0(i64 8, ptr %11) #10
  %54 = load ptr, ptr %4, align 8, !tbaa !29
  %55 = getelementptr inbounds nuw %struct.PyDictObject, ptr %54, i32 0, i32 3
  %56 = load ptr, ptr %55, align 8, !tbaa !30
  %57 = getelementptr inbounds nuw %struct._dictkeysobject, ptr %56, i32 0, i32 6
  %58 = load i64, ptr %57, align 8, !tbaa !39
  store i64 %58, ptr %11, align 8, !tbaa !39
  %59 = load ptr, ptr %4, align 8, !tbaa !29
  %60 = getelementptr inbounds nuw %struct.PyDictObject, ptr %59, i32 0, i32 3
  %61 = load ptr, ptr %60, align 8, !tbaa !30
  %62 = getelementptr inbounds nuw %struct._dictkeysobject, ptr %61, i32 0, i32 3
  %63 = load i8, ptr %62, align 2, !tbaa !38
  %64 = zext i8 %63 to i32
  %65 = icmp ne i32 %64, 0
  br i1 %65, label %66, label %101

66:                                               ; preds = %53
  call void @llvm.lifetime.start.p0(i64 8, ptr %12) #10
  %67 = load ptr, ptr %4, align 8, !tbaa !29
  %68 = getelementptr inbounds nuw %struct.PyDictObject, ptr %67, i32 0, i32 3
  %69 = load ptr, ptr %68, align 8, !tbaa !30
  %70 = call ptr @DK_UNICODE_ENTRIES(ptr noundef %69)
  %71 = load i64, ptr %8, align 8, !tbaa !39
  %72 = getelementptr %struct.PyDictUnicodeEntry, ptr %70, i64 %71
  store ptr %72, ptr %12, align 8, !tbaa !29
  br label %73

73:                                               ; preds = %84, %66
  %74 = load i64, ptr %8, align 8, !tbaa !39
  %75 = load i64, ptr %11, align 8, !tbaa !39
  %76 = icmp slt i64 %74, %75
  br i1 %76, label %77, label %82

77:                                               ; preds = %73
  %78 = load ptr, ptr %12, align 8, !tbaa !29
  %79 = getelementptr inbounds nuw %struct.PyDictUnicodeEntry, ptr %78, i32 0, i32 1
  %80 = load ptr, ptr %79, align 8, !tbaa !53
  %81 = icmp eq ptr %80, null
  br label %82

82:                                               ; preds = %77, %73
  %83 = phi i1 [ false, %73 ], [ %81, %77 ]
  br i1 %83, label %84, label %89

84:                                               ; preds = %82
  %85 = load ptr, ptr %12, align 8, !tbaa !29
  %86 = getelementptr %struct.PyDictUnicodeEntry, ptr %85, i32 1
  store ptr %86, ptr %12, align 8, !tbaa !29
  %87 = load i64, ptr %8, align 8, !tbaa !39
  %88 = add i64 %87, 1
  store i64 %88, ptr %8, align 8, !tbaa !39
  br label %73, !llvm.loop !264

89:                                               ; preds = %82
  %90 = load i64, ptr %8, align 8, !tbaa !39
  %91 = load i64, ptr %11, align 8, !tbaa !39
  %92 = icmp sge i64 %90, %91
  br i1 %92, label %93, label %94

93:                                               ; preds = %89
  store i32 2, ptr %9, align 4
  br label %98

94:                                               ; preds = %89
  %95 = load ptr, ptr %12, align 8, !tbaa !29
  %96 = getelementptr inbounds nuw %struct.PyDictUnicodeEntry, ptr %95, i32 0, i32 1
  %97 = load ptr, ptr %96, align 8, !tbaa !53
  store ptr %97, ptr %7, align 8, !tbaa !27
  store i32 0, ptr %9, align 4
  br label %98

98:                                               ; preds = %93, %94
  call void @llvm.lifetime.end.p0(i64 8, ptr %12) #10
  %99 = load i32, ptr %9, align 4
  switch i32 %99, label %137 [
    i32 0, label %100
  ]

100:                                              ; preds = %98
  br label %136

101:                                              ; preds = %53
  call void @llvm.lifetime.start.p0(i64 8, ptr %13) #10
  %102 = load ptr, ptr %4, align 8, !tbaa !29
  %103 = getelementptr inbounds nuw %struct.PyDictObject, ptr %102, i32 0, i32 3
  %104 = load ptr, ptr %103, align 8, !tbaa !30
  %105 = call ptr @DK_ENTRIES(ptr noundef %104)
  %106 = load i64, ptr %8, align 8, !tbaa !39
  %107 = getelementptr %struct.PyDictKeyEntry, ptr %105, i64 %106
  store ptr %107, ptr %13, align 8, !tbaa !29
  br label %108

108:                                              ; preds = %119, %101
  %109 = load i64, ptr %8, align 8, !tbaa !39
  %110 = load i64, ptr %11, align 8, !tbaa !39
  %111 = icmp slt i64 %109, %110
  br i1 %111, label %112, label %117

112:                                              ; preds = %108
  %113 = load ptr, ptr %13, align 8, !tbaa !29
  %114 = getelementptr inbounds nuw %struct.PyDictKeyEntry, ptr %113, i32 0, i32 2
  %115 = load ptr, ptr %114, align 8, !tbaa !49
  %116 = icmp eq ptr %115, null
  br label %117

117:                                              ; preds = %112, %108
  %118 = phi i1 [ false, %108 ], [ %116, %112 ]
  br i1 %118, label %119, label %124

119:                                              ; preds = %117
  %120 = load ptr, ptr %13, align 8, !tbaa !29
  %121 = getelementptr %struct.PyDictKeyEntry, ptr %120, i32 1
  store ptr %121, ptr %13, align 8, !tbaa !29
  %122 = load i64, ptr %8, align 8, !tbaa !39
  %123 = add i64 %122, 1
  store i64 %123, ptr %8, align 8, !tbaa !39
  br label %108, !llvm.loop !265

124:                                              ; preds = %117
  %125 = load i64, ptr %8, align 8, !tbaa !39
  %126 = load i64, ptr %11, align 8, !tbaa !39
  %127 = icmp sge i64 %125, %126
  br i1 %127, label %128, label %129

128:                                              ; preds = %124
  store i32 2, ptr %9, align 4
  br label %133

129:                                              ; preds = %124
  %130 = load ptr, ptr %13, align 8, !tbaa !29
  %131 = getelementptr inbounds nuw %struct.PyDictKeyEntry, ptr %130, i32 0, i32 2
  %132 = load ptr, ptr %131, align 8, !tbaa !49
  store ptr %132, ptr %7, align 8, !tbaa !27
  store i32 0, ptr %9, align 4
  br label %133

133:                                              ; preds = %128, %129
  call void @llvm.lifetime.end.p0(i64 8, ptr %13) #10
  %134 = load i32, ptr %9, align 4
  switch i32 %134, label %137 [
    i32 0, label %135
  ]

135:                                              ; preds = %133
  br label %136

136:                                              ; preds = %135, %100
  store i32 0, ptr %9, align 4
  br label %137

137:                                              ; preds = %136, %133, %98
  call void @llvm.lifetime.end.p0(i64 8, ptr %11) #10
  %138 = load i32, ptr %9, align 4
  switch i32 %138, label %162 [
    i32 0, label %139
    i32 2, label %158
  ]

139:                                              ; preds = %137
  br label %140

140:                                              ; preds = %139, %41
  %141 = load ptr, ptr %6, align 8, !tbaa !29
  %142 = getelementptr inbounds nuw %struct.dictiterobject, ptr %141, i32 0, i32 5
  %143 = load i64, ptr %142, align 8, !tbaa !257
  %144 = icmp eq i64 %143, 0
  br i1 %144, label %145, label %147

145:                                              ; preds = %140
  %146 = load ptr, ptr @PyExc_RuntimeError, align 8, !tbaa !27
  call void @PyErr_SetString(ptr noundef %146, ptr noundef @.str.71)
  br label %158

147:                                              ; preds = %140
  %148 = load i64, ptr %8, align 8, !tbaa !39
  %149 = add i64 %148, 1
  %150 = load ptr, ptr %6, align 8, !tbaa !29
  %151 = getelementptr inbounds nuw %struct.dictiterobject, ptr %150, i32 0, i32 3
  store i64 %149, ptr %151, align 8, !tbaa !258
  %152 = load ptr, ptr %6, align 8, !tbaa !29
  %153 = getelementptr inbounds nuw %struct.dictiterobject, ptr %152, i32 0, i32 5
  %154 = load i64, ptr %153, align 8, !tbaa !257
  %155 = add i64 %154, -1
  store i64 %155, ptr %153, align 8, !tbaa !257
  %156 = load ptr, ptr %7, align 8, !tbaa !27
  %157 = call ptr @_Py_NewRef(ptr noundef %156)
  store ptr %157, ptr %3, align 8
  store i32 1, ptr %9, align 4
  br label %162

158:                                              ; preds = %137, %145, %40
  %159 = load ptr, ptr %6, align 8, !tbaa !29
  %160 = getelementptr inbounds nuw %struct.dictiterobject, ptr %159, i32 0, i32 1
  store ptr null, ptr %160, align 8, !tbaa !123
  %161 = load ptr, ptr %4, align 8, !tbaa !29
  call void @Py_DECREF(ptr noundef %161)
  store ptr null, ptr %3, align 8
  store i32 1, ptr %9, align 4
  br label %162

162:                                              ; preds = %158, %147, %137, %22
  call void @llvm.lifetime.end.p0(i64 8, ptr %8) #10
  call void @llvm.lifetime.end.p0(i64 8, ptr %7) #10
  call void @llvm.lifetime.end.p0(i64 8, ptr %6) #10
  %163 = load ptr, ptr %3, align 8
  ret ptr %163
}

; Function Attrs: nounwind uwtable
define internal ptr @dictiter_iternextvalue(ptr noundef %0) #0 {
  %2 = alloca ptr, align 8
  %3 = alloca ptr, align 8
  %4 = alloca ptr, align 8
  %5 = alloca ptr, align 8
  %6 = alloca i32, align 4
  %7 = alloca ptr, align 8
  store ptr %0, ptr %3, align 8, !tbaa !27
  call void @llvm.lifetime.start.p0(i64 8, ptr %4) #10
  %8 = load ptr, ptr %3, align 8, !tbaa !27
  store ptr %8, ptr %4, align 8, !tbaa !29
  call void @llvm.lifetime.start.p0(i64 8, ptr %5) #10
  %9 = load ptr, ptr %4, align 8, !tbaa !29
  %10 = getelementptr inbounds nuw %struct.dictiterobject, ptr %9, i32 0, i32 1
  %11 = load ptr, ptr %10, align 8, !tbaa !123
  store ptr %11, ptr %5, align 8, !tbaa !29
  %12 = load ptr, ptr %5, align 8, !tbaa !29
  %13 = icmp eq ptr %12, null
  br i1 %13, label %14, label %15

14:                                               ; preds = %1
  store ptr null, ptr %2, align 8
  store i32 1, ptr %6, align 4
  br label %20

15:                                               ; preds = %1
  call void @llvm.lifetime.start.p0(i64 8, ptr %7) #10
  %16 = load ptr, ptr %5, align 8, !tbaa !29
  %17 = load ptr, ptr %3, align 8, !tbaa !27
  %18 = call ptr @dictiter_iternextvalue_lock_held(ptr noundef %16, ptr noundef %17)
  store ptr %18, ptr %7, align 8, !tbaa !27
  %19 = load ptr, ptr %7, align 8, !tbaa !27
  store ptr %19, ptr %2, align 8
  store i32 1, ptr %6, align 4
  call void @llvm.lifetime.end.p0(i64 8, ptr %7) #10
  br label %20

20:                                               ; preds = %15, %14
  call void @llvm.lifetime.end.p0(i64 8, ptr %5) #10
  call void @llvm.lifetime.end.p0(i64 8, ptr %4) #10
  %21 = load ptr, ptr %2, align 8
  ret ptr %21
}