; Function Attrs: nounwind uwtable
define internal ptr @dictiter_iternextvalue(ptr noundef captures(none) %0) #0 {
  %2 = getelementptr inbounds nuw i8, ptr %0, i64 16
  %3 = load ptr, ptr %2, align 8, !tbaa !186
  %4 = icmp eq ptr %3, null
  br i1 %4, label %dictiter_iternextvalue_lock_held.exit, label %5

5:                                                ; preds = %1
  %6 = getelementptr inbounds nuw i8, ptr %0, i64 24
  %7 = load i64, ptr %6, align 8, !tbaa !188
  %8 = getelementptr inbounds nuw i8, ptr %3, i64 16
  %9 = load i64, ptr %8, align 8, !tbaa !43
  %.not.i = icmp eq i64 %7, %9
  br i1 %.not.i, label %12, label %10

10:                                               ; preds = %5
  %11 = load ptr, ptr @PyExc_RuntimeError, align 8, !tbaa !64
  tail call void @PyErr_SetString(ptr noundef %11, ptr noundef nonnull @.str.70) #23
  store i64 -1, ptr %6, align 8, !tbaa !188
  br label %dictiter_iternextvalue_lock_held.exit

12:                                               ; preds = %5
  %13 = getelementptr inbounds nuw i8, ptr %0, i64 32
  %14 = load i64, ptr %13, align 8, !tbaa !193
  %15 = getelementptr inbounds nuw i8, ptr %3, i64 40
  %16 = load ptr, ptr %15, align 8, !tbaa !40
  %.not60.i = icmp eq ptr %16, null
  br i1 %.not60.i, label %27, label %17

17:                                               ; preds = %12
  %.not64.i = icmp slt i64 %14, %7
  br i1 %.not64.i, label %18, label %.critedge.i

18:                                               ; preds = %17
  %19 = getelementptr inbounds nuw i8, ptr %16, i64 8
  %20 = load i8, ptr %16, align 8, !tbaa !63
  %21 = zext i8 %20 to i64
  %22 = getelementptr [1 x ptr], ptr %19, i64 0, i64 %21
  %23 = getelementptr i8, ptr %22, i64 %14
  %24 = load i8, ptr %23, align 1, !tbaa !41
  %25 = zext i8 %24 to i64
  %26 = getelementptr [1 x ptr], ptr %19, i64 0, i64 %25
  %.049.pre.i = load ptr, ptr %26, align 8, !tbaa !64
  br label %.critedge.thread71.i

27:                                               ; preds = %12
  %28 = getelementptr inbounds nuw i8, ptr %3, i64 32
  %29 = load ptr, ptr %28, align 8, !tbaa !36
  %30 = getelementptr inbounds nuw i8, ptr %29, i64 24
  %31 = load i64, ptr %30, align 8, !tbaa !42
  %32 = getelementptr inbounds nuw i8, ptr %29, i64 10
  %33 = load i8, ptr %32, align 2, !tbaa !41
  %.not61.i = icmp eq i8 %33, 0
  %34 = icmp slt i64 %14, %31
  br i1 %.not61.i, label %49, label %35

35:                                               ; preds = %27
  br i1 %34, label %.lr.ph.preheader.i, label %.critedge.i

.lr.ph.preheader.i:                               ; preds = %35
  %36 = getelementptr inbounds nuw i8, ptr %29, i64 32
  %37 = getelementptr inbounds nuw i8, ptr %29, i64 9
  %38 = load i8, ptr %37, align 1, !tbaa !41
  %39 = zext nneg i8 %38 to i64
  %40 = shl nuw i64 1, %39
  %41 = getelementptr i8, ptr %36, i64 %40
  %42 = getelementptr %struct.PyDictUnicodeEntry, ptr %41, i64 %14
  br label %.lr.ph.i

.lr.ph.i:                                         ; preds = %46, %.lr.ph.preheader.i
  %.04781.i = phi ptr [ %47, %46 ], [ %42, %.lr.ph.preheader.i ]
  %.15480.i = phi i64 [ %48, %46 ], [ %14, %.lr.ph.preheader.i ]
  %43 = getelementptr inbounds nuw i8, ptr %.04781.i, i64 8
  %44 = load ptr, ptr %43, align 8, !tbaa !61
  %45 = icmp eq ptr %44, null
  br i1 %45, label %46, label %.critedge.thread71.i

46:                                               ; preds = %.lr.ph.i
  %47 = getelementptr i8, ptr %.04781.i, i64 16
  %48 = add i64 %.15480.i, 1
  %exitcond.not.i = icmp eq i64 %48, %31
  br i1 %exitcond.not.i, label %.critedge.i, label %.lr.ph.i, !llvm.loop !196

49:                                               ; preds = %27
  br i1 %34, label %.lr.ph84.preheader.i, label %.critedge.i

.lr.ph84.preheader.i:                             ; preds = %49
  %50 = getelementptr inbounds nuw i8, ptr %29, i64 32
  %51 = getelementptr inbounds nuw i8, ptr %29, i64 9
  %52 = load i8, ptr %51, align 1, !tbaa !41
  %53 = zext nneg i8 %52 to i64
  %54 = shl nuw i64 1, %53
  %55 = getelementptr i8, ptr %50, i64 %54
  %56 = getelementptr %struct.PyDictKeyEntry, ptr %55, i64 %14
  br label %.lr.ph84.i

.lr.ph84.i:                                       ; preds = %60, %.lr.ph84.preheader.i
  %.083.i = phi ptr [ %61, %60 ], [ %56, %.lr.ph84.preheader.i ]
  %.45782.i = phi i64 [ %62, %60 ], [ %14, %.lr.ph84.preheader.i ]
  %57 = getelementptr inbounds nuw i8, ptr %.083.i, i64 16
  %58 = load ptr, ptr %57, align 8, !tbaa !54
  %59 = icmp eq ptr %58, null
  br i1 %59, label %60, label %.critedge.thread71.i

60:                                               ; preds = %.lr.ph84.i
  %61 = getelementptr i8, ptr %.083.i, i64 24
  %62 = add i64 %.45782.i, 1
  %exitcond90.not.i = icmp eq i64 %62, %31
  br i1 %exitcond90.not.i, label %.critedge.i, label %.lr.ph84.i, !llvm.loop !197

.critedge.thread71.i:                             ; preds = %.lr.ph.i, %.lr.ph84.i, %18
  %.049.i = phi ptr [ %.049.pre.i, %18 ], [ %58, %.lr.ph84.i ], [ %44, %.lr.ph.i ]
  %.053.i = phi i64 [ %14, %18 ], [ %.45782.i, %.lr.ph84.i ], [ %.15480.i, %.lr.ph.i ]
  %63 = getelementptr inbounds nuw i8, ptr %0, i64 48
  %64 = load i64, ptr %63, align 8, !tbaa !189
  %65 = icmp eq i64 %64, 0
  br i1 %65, label %66, label %68

66:                                               ; preds = %.critedge.thread71.i
  %67 = load ptr, ptr @PyExc_RuntimeError, align 8, !tbaa !64
  tail call void @PyErr_SetString(ptr noundef %67, ptr noundef nonnull @.str.71) #23
  br label %.critedge.i

68:                                               ; preds = %.critedge.thread71.i
  %69 = add nsw i64 %.053.i, 1
  store i64 %69, ptr %13, align 8, !tbaa !193
  %70 = add i64 %64, -1
  store i64 %70, ptr %63, align 8, !tbaa !189
  %71 = load i32, ptr %.049.i, align 8, !tbaa !41
  %72 = icmp slt i32 %71, 0
  br i1 %72, label %dictiter_iternextvalue_lock_held.exit, label %73

73:                                               ; preds = %68
  %74 = add nuw i32 %71, 1
  store i32 %74, ptr %.049.i, align 8, !tbaa !41
  br label %dictiter_iternextvalue_lock_held.exit

.critedge.i:                                      ; preds = %46, %60, %66, %49, %35, %17
  store ptr null, ptr %2, align 8, !tbaa !186
  %75 = load i32, ptr %3, align 8, !tbaa !41
  %.not.i.i = icmp sgt i32 %75, -1
  br i1 %.not.i.i, label %76, label %dictiter_iternextvalue_lock_held.exit

76:                                               ; preds = %.critedge.i
  %77 = add nsw i32 %75, -1
  store i32 %77, ptr %3, align 8, !tbaa !41
  %78 = icmp eq i32 %77, 0
  br i1 %78, label %79, label %dictiter_iternextvalue_lock_held.exit

79:                                               ; preds = %76
  tail call void @_Py_Dealloc(ptr noundef nonnull %3) #23
  br label %dictiter_iternextvalue_lock_held.exit

dictiter_iternextvalue_lock_held.exit:            ; preds = %79, %76, %.critedge.i, %73, %68, %10, %1
  %.0 = phi ptr [ null, %1 ], [ null, %10 ], [ %.049.i, %68 ], [ %.049.i, %73 ], [ null, %.critedge.i ], [ null, %76 ], [ null, %79 ]
  ret ptr %.0
}